target datalayout = "e-m:e-p270:32:32-p271:32:32-p272:64:64-i64:64-i128:128-f80:128-n8:16:32:64-S128"
target triple = "x86_64-pc-linux-gnu"

%struct.Plane = type { %struct.DWTPlane, i32, i32, i64, i8, i8, i8, i8, i8, i8, [5 x [4 x %struct.SubBand]] }
%struct.DWTPlane = type { i32, i32, i32, ptr, ptr, ptr }
%struct.SubBand = type { i32, i32, i32, i32, i32, i32, i32, ptr, ptr, i32, ptr }

; Function Attrs: nounwind uwtable
define internal i32 @weight(i32 noundef %0, i32 noundef %1, i32 noundef %2) #1 {
  %4 = alloca i32, align 4
  %5 = alloca i32, align 4
  %6 = alloca i32, align 4
  %7 = alloca i32, align 4
  store i32 %0, ptr %5, align 4, !tbaa !47
  store i32 %1, ptr %6, align 4, !tbaa !47
  store i32 %2, ptr %7, align 4, !tbaa !47
  %8 = load i32, ptr %5, align 4, !tbaa !47
  %9 = load i32, ptr %7, align 4, !tbaa !47
  %10 = mul nsw i32 2, %9
  %11 = icmp slt i32 %8, %10
  br i1 %11, label %12, label %32

12:                                               ; preds = %3
  %13 = load i32, ptr %7, align 4, !tbaa !47
  %14 = icmp eq i32 %13, 1
  br i1 %14, label %15, label %19

15:                                               ; preds = %12
  %16 = load i32, ptr %5, align 4, !tbaa !47
  %17 = icmp ne i32 %16, 0
  %18 = select i1 %17, i32 5, i32 3
  br label %30

19:                                               ; preds = %12
  %20 = load i32, ptr %5, align 4, !tbaa !47
  %21 = mul nsw i32 6, %20
  %22 = load i32, ptr %7, align 4, !tbaa !47
  %23 = add nsw i32 %21, %22
  %24 = sub nsw i32 %23, 1
  %25 = load i32, ptr %7, align 4, !tbaa !47
  %26 = mul nsw i32 2, %25
  %27 = sub nsw i32 %26, 1
  %28 = sdiv i32 %24, %27
  %29 = add nsw i32 1, %28
  br label %30

30:                                               ; preds = %19, %15
  %31 = phi i32 [ %18, %15 ], [ %29, %19 ]
  store i32 %31, ptr %4, align 4
  br label %68

32:                                               ; preds = %3
  %33 = load i32, ptr %5, align 4, !tbaa !47
  %34 = load i32, ptr %6, align 4, !tbaa !47
  %35 = sub nsw i32 %34, 1
  %36 = load i32, ptr %7, align 4, !tbaa !47
  %37 = mul nsw i32 2, %36
  %38 = sub nsw i32 %35, %37
  %39 = icmp sgt i32 %33, %38
  br i1 %39, label %40, label %66

40:                                               ; preds = %32
  %41 = load i32, ptr %7, align 4, !tbaa !47
  %42 = icmp eq i32 %41, 1
  br i1 %42, label %43, label %50

43:                                               ; preds = %40
  %44 = load i32, ptr %6, align 4, !tbaa !47
  %45 = sub nsw i32 %44, 1
  %46 = load i32, ptr %5, align 4, !tbaa !47
  %47 = sub nsw i32 %45, %46
  %48 = icmp ne i32 %47, 0
  %49 = select i1 %48, i32 5, i32 3
  br label %64

50:                                               ; preds = %40
  %51 = load i32, ptr %6, align 4, !tbaa !47
  %52 = sub nsw i32 %51, 1
  %53 = load i32, ptr %5, align 4, !tbaa !47
  %54 = sub nsw i32 %52, %53
  %55 = mul nsw i32 6, %54
  %56 = load i32, ptr %7, align 4, !tbaa !47
  %57 = add nsw i32 %55, %56
  %58 = sub nsw i32 %57, 1
  %59 = load i32, ptr %7, align 4, !tbaa !47
  %60 = mul nsw i32 2, %59
  %61 = sub nsw i32 %60, 1
  %62 = sdiv i32 %58, %61
  %63 = add nsw i32 1, %62
  br label %64

64:                                               ; preds = %50, %43
  %65 = phi i32 [ %49, %43 ], [ %63, %50 ]
  store i32 %65, ptr %4, align 4
  br label %68

66:                                               ; preds = %32
  br label %67

67:                                               ; preds = %66
  store i32 8, ptr %4, align 4
  br label %68

68:                                               ; preds = %67, %64, %30
  %69 = load i32, ptr %4, align 4
  ret i32 %69
}

; Function Attrs: nounwind uwtable
define internal void @init_obmc_weight(ptr noundef %0, ptr noundef %1, i32 noundef %2, i32 noundef %3, i32 noundef %4, i32 noundef %5, i32 noundef %6) #1 {
  %8 = alloca ptr, align 8
  %9 = alloca ptr, align 8
  %10 = alloca i32, align 4
  %11 = alloca i32, align 4
  %12 = alloca i32, align 4
  %13 = alloca i32, align 4
  %14 = alloca i32, align 4
  %15 = alloca i32, align 4
  %16 = alloca i32, align 4
  store ptr %0, ptr %8, align 8, !tbaa !159
  store ptr %1, ptr %9, align 8, !tbaa !59
  store i32 %2, ptr %10, align 4, !tbaa !47
  store i32 %3, ptr %11, align 4, !tbaa !47
  store i32 %4, ptr %12, align 4, !tbaa !47
  store i32 %5, ptr %13, align 4, !tbaa !47
  store i32 %6, ptr %14, align 4, !tbaa !47
  call void @llvm.lifetime.start.p0(i64 4, ptr %15) #12
  store i32 0, ptr %15, align 4, !tbaa !47
  br label %17

17:                                               ; preds = %40, %7
  %18 = load i32, ptr %13, align 4, !tbaa !47
  %19 = icmp ne i32 %18, 0
  br i1 %19, label %20, label %28

20:                                               ; preds = %17
  %21 = load i32, ptr %15, align 4, !tbaa !47
  %22 = load ptr, ptr %8, align 8, !tbaa !159
  %23 = getelementptr inbounds nuw %struct.Plane, ptr %22, i32 0, i32 5
  %24 = load i8, ptr %23, align 1, !tbaa !173
  %25 = zext i8 %24 to i32
  %26 = ashr i32 %25, 1
  %27 = icmp slt i32 %21, %26
  br label %28

28:                                               ; preds = %20, %17
  %29 = phi i1 [ false, %17 ], [ %27, %20 ]
  br i1 %29, label %30, label %43

30:                                               ; preds = %28
  %31 = load ptr, ptr %8, align 8, !tbaa !159
  %32 = load ptr, ptr %9, align 8, !tbaa !59
  %33 = load i32, ptr %10, align 4, !tbaa !47
  %34 = load i32, ptr %11, align 4, !tbaa !47
  %35 = load i32, ptr %12, align 4, !tbaa !47
  call void @init_obmc_weight_row(ptr noundef %31, ptr noundef %32, i32 noundef %33, i32 noundef %34, i32 noundef %35, i32 noundef 8)
  %36 = load i32, ptr %10, align 4, !tbaa !47
  %37 = load ptr, ptr %9, align 8, !tbaa !59
  %38 = sext i32 %36 to i64
  %39 = getelementptr inbounds i8, ptr %37, i64 %38
  store ptr %39, ptr %9, align 8, !tbaa !59
  br label %40

40:                                               ; preds = %30
  %41 = load i32, ptr %15, align 4, !tbaa !47
  %42 = add nsw i32 %41, 1
  store i32 %42, ptr %15, align 4, !tbaa !47
  br label %17, !llvm.loop !324

43:                                               ; preds = %28
  br label %44

44:                                               ; preds = %74, %43
  %45 = load i32, ptr %15, align 4, !tbaa !47
  %46 = load ptr, ptr %8, align 8, !tbaa !159
  %47 = getelementptr inbounds nuw %struct.Plane, ptr %46, i32 0, i32 5
  %48 = load i8, ptr %47, align 1, !tbaa !173
  %49 = zext i8 %48 to i32
  %50 = load i32, ptr %14, align 4, !tbaa !47
  %51 = ashr i32 %49, %50
  %52 = icmp slt i32 %45, %51
  br i1 %52, label %53, label %77

53:                                               ; preds = %44
  call void @llvm.lifetime.start.p0(i64 4, ptr %16) #12
  %54 = load i32, ptr %15, align 4, !tbaa !47
  %55 = load ptr, ptr %8, align 8, !tbaa !159
  %56 = getelementptr inbounds nuw %struct.Plane, ptr %55, i32 0, i32 5
  %57 = load i8, ptr %56, align 1, !tbaa !173
  %58 = zext i8 %57 to i32
  %59 = load ptr, ptr %8, align 8, !tbaa !159
  %60 = getelementptr inbounds nuw %struct.Plane, ptr %59, i32 0, i32 9
  %61 = load i8, ptr %60, align 1, !tbaa !175
  %62 = zext i8 %61 to i32
  %63 = call i32 @weight(i32 noundef %54, i32 noundef %58, i32 noundef %62)
  store i32 %63, ptr %16, align 4, !tbaa !47
  %64 = load ptr, ptr %8, align 8, !tbaa !159
  %65 = load ptr, ptr %9, align 8, !tbaa !59
  %66 = load i32, ptr %10, align 4, !tbaa !47
  %67 = load i32, ptr %11, align 4, !tbaa !47
  %68 = load i32, ptr %12, align 4, !tbaa !47
  %69 = load i32, ptr %16, align 4, !tbaa !47
  call void @init_obmc_weight_row(ptr noundef %64, ptr noundef %65, i32 noundef %66, i32 noundef %67, i32 noundef %68, i32 noundef %69)
  %70 = load i32, ptr %10, align 4, !tbaa !47
  %71 = load ptr, ptr %9, align 8, !tbaa !59
  %72 = sext i32 %70 to i64
  %73 = getelementptr inbounds i8, ptr %71, i64 %72
  store ptr %73, ptr %9, align 8, !tbaa !59
  call void @llvm.lifetime.end.p0(i64 4, ptr %16) #12
  br label %74

74:                                               ; preds = %53
  %75 = load i32, ptr %15, align 4, !tbaa !47
  %76 = add nsw i32 %75, 1
  store i32 %76, ptr %15, align 4, !tbaa !47
  br label %44, !llvm.loop !325

77:                                               ; preds = %44
  br label %78

78:                                               ; preds = %95, %77
  %79 = load i32, ptr %15, align 4, !tbaa !47
  %80 = load ptr, ptr %8, align 8, !tbaa !159
  %81 = getelementptr inbounds nuw %struct.Plane, ptr %80, i32 0, i32 5
  %82 = load i8, ptr %81, align 1, !tbaa !173
  %83 = zext i8 %82 to i32
  %84 = icmp slt i32 %79, %83
  br i1 %84, label %85, label %98

85:                                               ; preds = %78
  %86 = load ptr, ptr %8, align 8, !tbaa !159
  %87 = load ptr, ptr %9, align 8, !tbaa !59
  %88 = load i32, ptr %10, align 4, !tbaa !47
  %89 = load i32, ptr %11, align 4, !tbaa !47
  %90 = load i32, ptr %12, align 4, !tbaa !47
  call void @init_obmc_weight_row(ptr noundef %86, ptr noundef %87, i32 noundef %88, i32 noundef %89, i32 noundef %90, i32 noundef 8)
  %91 = load i32, ptr %10, align 4, !tbaa !47
  %92 = load ptr, ptr %9, align 8, !tbaa !59
  %93 = sext i32 %91 to i64
  %94 = getelementptr inbounds i8, ptr %92, i64 %93
  store ptr %94, ptr %9, align 8, !tbaa !59
  br label %95

95:                                               ; preds = %85
  %96 = load i32, ptr %15, align 4, !tbaa !47
  %97 = add nsw i32 %96, 1
  store i32 %97, ptr %15, align 4, !tbaa !47
  br label %78, !llvm.loop !326

98:                                               ; preds = %78
  call void @llvm.lifetime.end.p0(i64 4, ptr %15) #12
  ret void
}