; Function Attrs: nofree norecurse nosync nounwind memory(argmem: readwrite) uwtable
define internal fastcc void @init_obmc_weight(ptr noundef readonly captures(none) %0, ptr noundef writeonly captures(none) %1, i32 noundef range(i32 0, 2) %2, i32 noundef range(i32 0, 2) %3, i32 noundef range(i32 0, 2) %4, i32 noundef range(i32 0, 2) %5) unnamed_addr #11 {
  %7 = getelementptr inbounds nuw i8, ptr %0, i64 57
  %.not = icmp eq i32 %4, 0
  %.pre = load i8, ptr %7, align 1, !tbaa !143
  %.not59 = icmp ult i8 %.pre, 2
  %or.cond = select i1 %.not, i1 true, i1 %.not59
  br i1 %or.cond, label %.critedge, label %.lr.ph49

.lr.ph49:                                         ; preds = %6, %.lr.ph49
  %.0353848 = phi i32 [ %9, %.lr.ph49 ], [ 0, %6 ]
  %.03947 = phi ptr [ %8, %.lr.ph49 ], [ %1, %6 ]
  tail call fastcc void @init_obmc_weight_row(ptr noundef nonnull %0, ptr noundef %.03947, i32 noundef %2, i32 noundef %3, i32 noundef 8)
  %8 = getelementptr inbounds nuw i8, ptr %.03947, i64 32
  %9 = add nuw nsw i32 %.0353848, 1
  %10 = load i8, ptr %7, align 1, !tbaa !143
  %11 = lshr i8 %10, 1
  %12 = zext nneg i8 %11 to i32
  %13 = icmp samesign ult i32 %9, %12
  br i1 %13, label %.lr.ph49, label %.critedge

.critedge:                                        ; preds = %.lr.ph49, %6
  %14 = phi i8 [ %.pre, %6 ], [ %10, %.lr.ph49 ]
  %.035.lcssa = phi i32 [ 0, %6 ], [ %9, %.lr.ph49 ]
  %.0.lcssa = phi ptr [ %1, %6 ], [ %8, %.lr.ph49 ]
  %15 = zext i8 %14 to i32
  %16 = lshr i32 %15, %5
  %17 = icmp samesign ult i32 %.035.lcssa, %16
  br i1 %17, label %.lr.ph53, label %.preheader

.lr.ph53:                                         ; preds = %.critedge
  %18 = getelementptr inbounds nuw i8, ptr %0, i64 61
  br label %20

.preheader:                                       ; preds = %weight.exit, %.critedge
  %.pre-phi = phi i32 [ %15, %.critedge ], [ %56, %weight.exit ]
  %.136.lcssa = phi i32 [ %.035.lcssa, %.critedge ], [ %54, %weight.exit ]
  %.1.lcssa = phi ptr [ %.0.lcssa, %.critedge ], [ %53, %weight.exit ]
  %19 = icmp samesign ult i32 %.136.lcssa, %.pre-phi
  br i1 %19, label %.lr.ph58, label %._crit_edge

20:                                               ; preds = %.lr.ph53, %weight.exit
  %21 = phi i32 [ %15, %.lr.ph53 ], [ %56, %weight.exit ]
  %.152 = phi ptr [ %.0.lcssa, %.lr.ph53 ], [ %53, %weight.exit ]
  %.13651 = phi i32 [ %.035.lcssa, %.lr.ph53 ], [ %54, %weight.exit ]
  %22 = load i8, ptr %18, align 1, !tbaa !227
  %23 = zext i8 %22 to i32
  %24 = shl nuw nsw i32 %23, 1
  %25 = icmp samesign ult i32 %.13651, %24
  br i1 %25, label %26, label %37

26:                                               ; preds = %20
  %27 = icmp eq i8 %22, 1
  br i1 %27, label %28, label %30

28:                                               ; preds = %26
  %.not23.i = icmp eq i32 %.13651, 0
  %29 = select i1 %.not23.i, i32 3, i32 5
  br label %weight.exit

30:                                               ; preds = %26
  %31 = mul nuw nsw i32 %.13651, 6
  %32 = add nuw nsw i32 %31, 65535
  %33 = add nuw nsw i32 %32, %23
  %.lhs.trunc = trunc i32 %33 to i16
  %34 = trunc nuw nsw i32 %24 to i16
  %.rhs.trunc = add nsw i16 %34, -1
  %35 = sdiv i16 %.lhs.trunc, %.rhs.trunc
  %.sext = sext i16 %35 to i32
  %36 = add nsw i32 %.sext, 1
  br label %weight.exit

37:                                               ; preds = %20
  %38 = add nsw i32 %21, -1
  %39 = sub nsw i32 %38, %24
  %40 = icmp sgt i32 %.13651, %39
  br i1 %40, label %41, label %weight.exit

41:                                               ; preds = %37
  %42 = icmp eq i8 %22, 1
  br i1 %42, label %43, label %45

43:                                               ; preds = %41
  %.not.i = icmp eq i32 %38, %.13651
  %44 = select i1 %.not.i, i32 3, i32 5
  br label %weight.exit

45:                                               ; preds = %41
  %46 = sub nsw i32 %38, %.13651
  %47 = mul nsw i32 %46, 6
  %48 = add nsw i32 %47, %23
  %49 = trunc nsw i32 %48 to i16
  %.lhs.trunc.i = add nsw i16 %49, -1
  %50 = trunc nuw nsw i32 %24 to i16
  %.rhs.trunc.i = add nsw i16 %50, -1
  %51 = sdiv i16 %.lhs.trunc.i, %.rhs.trunc.i
  %.sext.i = sext i16 %51 to i32
  %52 = add nsw i32 %.sext.i, 1
  br label %weight.exit

weight.exit:                                      ; preds = %28, %30, %37, %43, %45
  %.0.i = phi i32 [ %29, %28 ], [ %36, %30 ], [ %44, %43 ], [ %52, %45 ], [ 8, %37 ]
  tail call fastcc void @init_obmc_weight_row(ptr noundef nonnull %0, ptr noundef %.152, i32 noundef %2, i32 noundef %3, i32 noundef %.0.i)
  %53 = getelementptr inbounds nuw i8, ptr %.152, i64 32
  %54 = add nuw nsw i32 %.13651, 1
  %55 = load i8, ptr %7, align 1, !tbaa !143
  %56 = zext i8 %55 to i32
  %57 = lshr i32 %56, %5
  %58 = icmp samesign ult i32 %54, %57
  br i1 %58, label %20, label %.preheader, !llvm.loop !302

.lr.ph58:                                         ; preds = %.preheader, %.lr.ph58
  %.257 = phi ptr [ %59, %.lr.ph58 ], [ %.1.lcssa, %.preheader ]
  %.23756 = phi i32 [ %60, %.lr.ph58 ], [ %.136.lcssa, %.preheader ]
  tail call fastcc void @init_obmc_weight_row(ptr noundef nonnull %0, ptr noundef %.257, i32 noundef %2, i32 noundef %3, i32 noundef 8)
  %59 = getelementptr inbounds nuw i8, ptr %.257, i64 32
  %60 = add nuw nsw i32 %.23756, 1
  %61 = load i8, ptr %7, align 1, !tbaa !143
  %62 = zext i8 %61 to i32
  %63 = icmp samesign ult i32 %60, %62
  br i1 %63, label %.lr.ph58, label %._crit_edge, !llvm.loop !303

._crit_edge:                                      ; preds = %.lr.ph58, %.preheader
  ret void
}